; Function Attrs: mustprogress uwtable
define internal void @"_ZN9grpc_core20arena_promise_detail7InlinedIN4absl12lts_202308028StatusOrISt10unique_ptrI19grpc_metadata_batchNS_5Arena13PooledDeleterEEEEZN23grpc_plugin_credentials18GetRequestMetadataES9_PKN21grpc_call_credentials22GetRequestMetadataArgsEE3$_0E7DestroyEPNS0_7ArgTypeE"(ptr nocapture noundef readonly %arg) #6 align 2 personality ptr @__gxx_personality_v0 {
entry:
  %arg.val = load ptr, ptr %arg, align 8
  %cmp.not.i.i.i = icmp eq ptr %arg.val, null
  br i1 %cmp.not.i.i.i, label %"_ZN9grpc_core8DestructIZN23grpc_plugin_credentials18GetRequestMetadataESt10unique_ptrI19grpc_metadata_batchNS_5Arena13PooledDeleterEEPKN21grpc_call_credentials22GetRequestMetadataArgsEE3$_0EEvPT_.exit", label %if.then.i.i.i

if.then.i.i.i:                                    ; preds = %entry
  %refs_.i.i.i.i = getelementptr inbounds i8, ptr %arg.val, i64 8
  %0 = atomicrmw sub ptr %refs_.i.i.i.i, i64 1 acq_rel, align 8
  %cmp.i.i.i.i.i = icmp eq i64 %0, 1
  br i1 %cmp.i.i.i.i.i, label %if.then.i.i.i.i, label %"_ZN9grpc_core8DestructIZN23grpc_plugin_credentials18GetRequestMetadataESt10unique_ptrI19grpc_metadata_batchNS_5Arena13PooledDeleterEEPKN21grpc_call_credentials22GetRequestMetadataArgsEE3$_0EEvPT_.exit"

if.then.i.i.i.i:                                  ; preds = %if.then.i.i.i
  %vtable.i.i.i.i.i = load ptr, ptr %arg.val, align 8
  %vfn.i.i.i.i.i = getelementptr inbounds i8, ptr %vtable.i.i.i.i.i, i64 8
  %1 = load ptr, ptr %vfn.i.i.i.i.i, align 8
  tail call void %1(ptr noundef nonnull align 8 dereferenceable(332) %arg.val) #23
  br label %"_ZN9grpc_core8DestructIZN23grpc_plugin_credentials18GetRequestMetadataESt10unique_ptrI19grpc_metadata_batchNS_5Arena13PooledDeleterEEPKN21grpc_call_credentials22GetRequestMetadataArgsEE3$_0EEvPT_.exit"

"_ZN9grpc_core8DestructIZN23grpc_plugin_credentials18GetRequestMetadataESt10unique_ptrI19grpc_metadata_batchNS_5Arena13PooledDeleterEEPKN21grpc_call_credentials22GetRequestMetadataArgsEE3$_0EEvPT_.exit": ; preds = %entry, %if.then.i.i.i, %if.then.i.i.i.i
  ret void
}